target datalayout = "e-m:e-p270:32:32-p271:32:32-p272:64:64-i64:64-i128:128-f80:128-n8:16:32:64-S128"
target triple = "x86_64-unknown-linux-gnu"

%class.ptr_vector = type { %class.vector.0 }
%class.vector.0 = type { ptr }
%"class.euf::justification" = type { i32, %union.anon, %union.anon.19 }
%union.anon = type { ptr }
%union.anon.19 = type { ptr }
%"class.euf::enode" = type { ptr, i8, i8, i8, i8, i8, i8, i8, i8, i8, i32, i32, i32, i32, i32, i32, %class.ptr_vector, ptr, ptr, ptr, ptr, %class.id_var_list, %"class.euf::justification", %"class.euf::justification", i32, i8, %class.approx_set, %class.approx_set, [0 x ptr] }
%class.id_var_list = type { i32, ptr }
%class.approx_set = type { %class.approx_set_tpl }
%class.approx_set_tpl = type { i64 }

; Function Attrs: mustprogress nounwind uwtable
define linkonce_odr hidden noundef nonnull align 8 dereferenceable(8) ptr @_ZN6vectorIPN3euf5enodeELb0EjEixEj(ptr noundef nonnull align 8 dereferenceable(8) %this, i32 noundef %idx) #4 comdat align 2 {
entry:
  %this.addr = alloca ptr, align 8
  %idx.addr = alloca i32, align 4
  store ptr %this, ptr %this.addr, align 8
  store i32 %idx, ptr %idx.addr, align 4
  %this1 = load ptr, ptr %this.addr, align 8
  %m_data = getelementptr inbounds %class.vector.0, ptr %this1, i32 0, i32 0
  %0 = load ptr, ptr %m_data, align 8
  %1 = load i32, ptr %idx.addr, align 4
  %idxprom = zext i32 %1 to i64
  %arrayidx = getelementptr inbounds ptr, ptr %0, i64 %idxprom
  ret ptr %arrayidx
}

; Function Attrs: mustprogress nounwind uwtable
define linkonce_odr hidden noundef i32 @_ZNK6vectorIPN3euf5enodeELb0EjE4sizeEv(ptr noundef nonnull align 8 dereferenceable(8) %this) #4 comdat align 2 {
entry:
  %retval = alloca i32, align 4
  %this.addr = alloca ptr, align 8
  store ptr %this, ptr %this.addr, align 8
  %this1 = load ptr, ptr %this.addr, align 8
  %m_data = getelementptr inbounds %class.vector.0, ptr %this1, i32 0, i32 0
  %0 = load ptr, ptr %m_data, align 8
  %cmp = icmp eq ptr %0, null
  br i1 %cmp, label %if.then, label %if.end

if.then:                                          ; preds = %entry
  store i32 0, ptr %retval, align 4
  br label %return

if.end:                                           ; preds = %entry
  %m_data2 = getelementptr inbounds %class.vector.0, ptr %this1, i32 0, i32 0
  %1 = load ptr, ptr %m_data2, align 8
  %arrayidx = getelementptr inbounds i32, ptr %1, i64 -1
  %2 = load i32, ptr %arrayidx, align 4
  store i32 %2, ptr %retval, align 4
  br label %return

return:                                           ; preds = %if.end, %if.then
  %3 = load i32, ptr %retval, align 4
  ret i32 %3
}

; Function Attrs: mustprogress nounwind uwtable
define linkonce_odr hidden void @_ZN6vectorIPN3euf5enodeELb0EjE8pop_backEv(ptr noundef nonnull align 8 dereferenceable(8) %this) #4 comdat align 2 {
entry:
  %this.addr = alloca ptr, align 8
  store ptr %this, ptr %this.addr, align 8
  %this1 = load ptr, ptr %this.addr, align 8
  %m_data = getelementptr inbounds %class.vector.0, ptr %this1, i32 0, i32 0
  %0 = load ptr, ptr %m_data, align 8
  %arrayidx = getelementptr inbounds i32, ptr %0, i64 -1
  %1 = load i32, ptr %arrayidx, align 4
  %dec = add i32 %1, -1
  store i32 %dec, ptr %arrayidx, align 4
  ret void
}

; Function Attrs: mustprogress nounwind uwtable
define linkonce_odr hidden noundef ptr @_ZNK3euf5enode8get_rootEv(ptr noundef nonnull align 8 dereferenceable(176) %this) #4 comdat align 2 {
entry:
  %this.addr = alloca ptr, align 8
  store ptr %this, ptr %this.addr, align 8
  %this1 = load ptr, ptr %this.addr, align 8
  %m_root = getelementptr inbounds %"class.euf::enode", ptr %this1, i32 0, i32 18
  %0 = load ptr, ptr %m_root, align 8
  ret ptr %0
}

; Function Attrs: mustprogress uwtable
define linkonce_odr hidden noundef nonnull align 8 dereferenceable(8) ptr @_ZN6vectorIPN3euf5enodeELb0EjE4backEv(ptr noundef nonnull align 8 dereferenceable(8) %this) #5 comdat align 2 {
entry:
  %this.addr = alloca ptr, align 8
  store ptr %this, ptr %this.addr, align 8
  %this1 = load ptr, ptr %this.addr, align 8
  %call = call noundef i32 @_ZNK6vectorIPN3euf5enodeELb0EjE4sizeEv(ptr noundef nonnull align 8 dereferenceable(8) %this1)
  %sub = sub i32 %call, 1
  %call2 = call noundef nonnull align 8 dereferenceable(8) ptr @_ZN6vectorIPN3euf5enodeELb0EjEixEj(ptr noundef nonnull align 8 dereferenceable(8) %this1, i32 noundef %sub)
  ret ptr %call2
}

; Function Attrs: mustprogress nounwind uwtable
define linkonce_odr hidden noundef zeroext i1 @_ZNK6vectorIPN3euf5enodeELb0EjE5emptyEv(ptr noundef nonnull align 8 dereferenceable(8) %this) #4 comdat align 2 {
entry:
  %this.addr = alloca ptr, align 8
  store ptr %this, ptr %this.addr, align 8
  %this1 = load ptr, ptr %this.addr, align 8
  %m_data = getelementptr inbounds %class.vector.0, ptr %this1, i32 0, i32 0
  %0 = load ptr, ptr %m_data, align 8
  %cmp = icmp eq ptr %0, null
  br i1 %cmp, label %lor.end, label %lor.rhs

lor.rhs:                                          ; preds = %entry
  %m_data2 = getelementptr inbounds %class.vector.0, ptr %this1, i32 0, i32 0
  %1 = load ptr, ptr %m_data2, align 8
  %arrayidx = getelementptr inbounds i32, ptr %1, i64 -1
  %2 = load i32, ptr %arrayidx, align 4
  %cmp3 = icmp eq i32 %2, 0
  br label %lor.end

lor.end:                                          ; preds = %lor.rhs, %entry
  %3 = phi i1 [ true, %entry ], [ %cmp3, %lor.rhs ]
  ret i1 %3
}

; Function Attrs: mustprogress uwtable
define hidden void @_ZN3euf9bv_plugin5mergeER10ptr_vectorINS_5enodeEES4_NS_13justificationE(ptr noundef nonnull align 8 dereferenceable(80) %this, ptr noundef nonnull align 8 dereferenceable(8) %xs, ptr noundef nonnull align 8 dereferenceable(8) %ys, ptr noundef byval(%"class.euf::justification") align 8 %dep) #5 align 2 {
entry:
  %this.addr = alloca ptr, align 8
  %xs.addr = alloca ptr, align 8
  %ys.addr = alloca ptr, align 8
  %x = alloca ptr, align 8
  %y = alloca ptr, align 8
  %agg.tmp = alloca %"class.euf::justification", align 8
  store ptr %this, ptr %this.addr, align 8
  store ptr %xs, ptr %xs.addr, align 8
  store ptr %ys, ptr %ys.addr, align 8
  %this1 = load ptr, ptr %this.addr, align 8
  br label %while.cond

while.cond:                                       ; preds = %if.end20, %if.then12, %if.then9, %if.then6, %if.then, %entry
  %0 = load ptr, ptr %xs.addr, align 8
  %call = call noundef zeroext i1 @_ZNK6vectorIPN3euf5enodeELb0EjE5emptyEv(ptr noundef nonnull align 8 dereferenceable(8) %0)
  %lnot = xor i1 %call, true
  br i1 %lnot, label %while.body, label %while.end

while.body:                                       ; preds = %while.cond
  %1 = load ptr, ptr %xs.addr, align 8
  %call2 = call noundef nonnull align 8 dereferenceable(8) ptr @_ZN6vectorIPN3euf5enodeELb0EjE4backEv(ptr noundef nonnull align 8 dereferenceable(8) %1)
  %2 = load ptr, ptr %call2, align 8
  store ptr %2, ptr %x, align 8
  %3 = load ptr, ptr %ys.addr, align 8
  %call3 = call noundef nonnull align 8 dereferenceable(8) ptr @_ZN6vectorIPN3euf5enodeELb0EjE4backEv(ptr noundef nonnull align 8 dereferenceable(8) %3)
  %4 = load ptr, ptr %call3, align 8
  store ptr %4, ptr %y, align 8
  %5 = load ptr, ptr %x, align 8
  %6 = load ptr, ptr %xs.addr, align 8
  %call4 = call noundef zeroext i1 @_ZN3euf9bv_plugin10unfold_subEPNS_5enodeER10ptr_vectorIS1_E(ptr noundef nonnull align 8 dereferenceable(80) %this1, ptr noundef %5, ptr noundef nonnull align 8 dereferenceable(8) %6)
  br i1 %call4, label %if.then, label %if.else

if.then:                                          ; preds = %while.body
  br label %while.cond, !llvm.loop !4

if.else:                                          ; preds = %while.body
  %7 = load ptr, ptr %y, align 8
  %8 = load ptr, ptr %ys.addr, align 8
  %call5 = call noundef zeroext i1 @_ZN3euf9bv_plugin10unfold_subEPNS_5enodeER10ptr_vectorIS1_E(ptr noundef nonnull align 8 dereferenceable(80) %this1, ptr noundef %7, ptr noundef nonnull align 8 dereferenceable(8) %8)
  br i1 %call5, label %if.then6, label %if.else7

if.then6:                                         ; preds = %if.else
  br label %while.cond, !llvm.loop !4

if.else7:                                         ; preds = %if.else
  %9 = load ptr, ptr %x, align 8
  %10 = load ptr, ptr %xs.addr, align 8
  %11 = load ptr, ptr %y, align 8
  %12 = load ptr, ptr %ys.addr, align 8
  %call8 = call noundef zeroext i1 @_ZN3euf9bv_plugin12unfold_widthEPNS_5enodeER10ptr_vectorIS1_ES2_S5_(ptr noundef nonnull align 8 dereferenceable(80) %this1, ptr noundef %9, ptr noundef nonnull align 8 dereferenceable(8) %10, ptr noundef %11, ptr noundef nonnull align 8 dereferenceable(8) %12)
  br i1 %call8, label %if.then9, label %if.else10

if.then9:                                         ; preds = %if.else7
  br label %while.cond, !llvm.loop !4

if.else10:                                        ; preds = %if.else7
  %13 = load ptr, ptr %y, align 8
  %14 = load ptr, ptr %ys.addr, align 8
  %15 = load ptr, ptr %x, align 8
  %16 = load ptr, ptr %xs.addr, align 8
  %call11 = call noundef zeroext i1 @_ZN3euf9bv_plugin12unfold_widthEPNS_5enodeER10ptr_vectorIS1_ES2_S5_(ptr noundef nonnull align 8 dereferenceable(80) %this1, ptr noundef %13, ptr noundef nonnull align 8 dereferenceable(8) %14, ptr noundef %15, ptr noundef nonnull align 8 dereferenceable(8) %16)
  br i1 %call11, label %if.then12, label %if.else13

if.then12:                                        ; preds = %if.else10
  br label %while.cond, !llvm.loop !4

if.else13:                                        ; preds = %if.else10
  %17 = load ptr, ptr %x, align 8
  %call14 = call noundef ptr @_ZNK3euf5enode8get_rootEv(ptr noundef nonnull align 8 dereferenceable(176) %17)
  %18 = load ptr, ptr %y, align 8
  %call15 = call noundef ptr @_ZNK3euf5enode8get_rootEv(ptr noundef nonnull align 8 dereferenceable(176) %18)
  %cmp = icmp ne ptr %call14, %call15
  br i1 %cmp, label %if.then16, label %if.end

if.then16:                                        ; preds = %if.else13
  %19 = load ptr, ptr %x, align 8
  %20 = load ptr, ptr %y, align 8
  call void @llvm.memcpy.p0.p0.i64(ptr align 8 %agg.tmp, ptr align 8 %dep, i64 24, i1 false)
  call void @_ZN3euf6plugin10push_mergeEPNS_5enodeES2_NS_13justificationE(ptr noundef nonnull align 8 dereferenceable(16) %this1, ptr noundef %19, ptr noundef %20, ptr noundef byval(%"class.euf::justification") align 8 %agg.tmp)
  br label %if.end

if.end:                                           ; preds = %if.then16, %if.else13
  br label %if.end17

if.end17:                                         ; preds = %if.end
  br label %if.end18

if.end18:                                         ; preds = %if.end17
  br label %if.end19

if.end19:                                         ; preds = %if.end18
  br label %if.end20

if.end20:                                         ; preds = %if.end19
  %21 = load ptr, ptr %xs.addr, align 8
  call void @_ZN6vectorIPN3euf5enodeELb0EjE8pop_backEv(ptr noundef nonnull align 8 dereferenceable(8) %21)
  %22 = load ptr, ptr %ys.addr, align 8
  call void @_ZN6vectorIPN3euf5enodeELb0EjE8pop_backEv(ptr noundef nonnull align 8 dereferenceable(8) %22)
  br label %while.cond, !llvm.loop !4

while.end:                                        ; preds = %while.cond
  ret void
}