; Function Attrs: mustprogress uwtable
define hidden void @_ZN3euf9bv_plugin5mergeER10ptr_vectorINS_5enodeEES4_NS_13justificationE(ptr noundef nonnull align 8 dereferenceable(80) %this, ptr noundef nonnull align 8 dereferenceable(8) %xs, ptr noundef nonnull align 8 dereferenceable(8) %ys, ptr nocapture noundef readonly byval(%"class.euf::justification") align 8 %dep) local_unnamed_addr #3 align 2 {
entry:
  %0 = load ptr, ptr %xs, align 8
  %cmp.i28 = icmp eq ptr %0, null
  br i1 %cmp.i28, label %while.end, label %_ZNK6vectorIPN3euf5enodeELb0EjE5emptyEv.exit

_ZNK6vectorIPN3euf5enodeELb0EjE5emptyEv.exit:     ; preds = %entry, %while.cond.backedge
  %1 = phi ptr [ %17, %while.cond.backedge ], [ %0, %entry ]
  %arrayidx.i = getelementptr inbounds i8, ptr %1, i64 -4
  %2 = load i32, ptr %arrayidx.i, align 4
  %cmp3.i = icmp eq i32 %2, 0
  br i1 %cmp3.i, label %while.end, label %_ZN6vectorIPN3euf5enodeELb0EjE4backEv.exit

_ZN6vectorIPN3euf5enodeELb0EjE4backEv.exit:       ; preds = %_ZNK6vectorIPN3euf5enodeELb0EjE5emptyEv.exit
  %3 = add i32 %2, -1
  %4 = zext i32 %3 to i64
  %arrayidx.i1.i = getelementptr inbounds ptr, ptr %1, i64 %4
  %5 = load ptr, ptr %arrayidx.i1.i, align 8
  %6 = load ptr, ptr %ys, align 8
  %cmp.i.i18 = icmp eq ptr %6, null
  br i1 %cmp.i.i18, label %_ZN6vectorIPN3euf5enodeELb0EjE4backEv.exit23, label %if.end.i.i19

if.end.i.i19:                                     ; preds = %_ZN6vectorIPN3euf5enodeELb0EjE4backEv.exit
  %arrayidx.i.i20 = getelementptr inbounds i8, ptr %6, i64 -4
  %7 = load i32, ptr %arrayidx.i.i20, align 4
  %8 = add i32 %7, -1
  %9 = zext i32 %8 to i64
  br label %_ZN6vectorIPN3euf5enodeELb0EjE4backEv.exit23

_ZN6vectorIPN3euf5enodeELb0EjE4backEv.exit23:     ; preds = %_ZN6vectorIPN3euf5enodeELb0EjE4backEv.exit, %if.end.i.i19
  %retval.0.i.i21 = phi i64 [ %9, %if.end.i.i19 ], [ 4294967295, %_ZN6vectorIPN3euf5enodeELb0EjE4backEv.exit ]
  %arrayidx.i1.i22 = getelementptr inbounds ptr, ptr %6, i64 %retval.0.i.i21
  %10 = load ptr, ptr %arrayidx.i1.i22, align 8
  %call4 = tail call noundef zeroext i1 @_ZN3euf9bv_plugin10unfold_subEPNS_5enodeER10ptr_vectorIS1_E(ptr noundef nonnull align 8 dereferenceable(80) %this, ptr noundef %5, ptr noundef nonnull align 8 dereferenceable(8) %xs)
  br i1 %call4, label %while.cond.backedge, label %if.else

if.else:                                          ; preds = %_ZN6vectorIPN3euf5enodeELb0EjE4backEv.exit23
  %call5 = tail call noundef zeroext i1 @_ZN3euf9bv_plugin10unfold_subEPNS_5enodeER10ptr_vectorIS1_E(ptr noundef nonnull align 8 dereferenceable(80) %this, ptr noundef %10, ptr noundef nonnull align 8 dereferenceable(8) %ys)
  br i1 %call5, label %while.cond.backedge, label %if.else7

if.else7:                                         ; preds = %if.else
  %call8 = tail call noundef zeroext i1 @_ZN3euf9bv_plugin12unfold_widthEPNS_5enodeER10ptr_vectorIS1_ES2_S5_(ptr noundef nonnull align 8 dereferenceable(80) %this, ptr noundef %5, ptr noundef nonnull align 8 dereferenceable(8) %xs, ptr noundef %10, ptr nonnull align 8 poison)
  br i1 %call8, label %while.cond.backedge, label %if.else10

if.else10:                                        ; preds = %if.else7
  %call11 = tail call noundef zeroext i1 @_ZN3euf9bv_plugin12unfold_widthEPNS_5enodeER10ptr_vectorIS1_ES2_S5_(ptr noundef nonnull align 8 dereferenceable(80) %this, ptr noundef %10, ptr noundef nonnull align 8 dereferenceable(8) %ys, ptr noundef %5, ptr nonnull align 8 poison)
  br i1 %call11, label %while.cond.backedge, label %if.else13

if.else13:                                        ; preds = %if.else10
  %m_root.i = getelementptr inbounds i8, ptr %5, i64 64
  %11 = load ptr, ptr %m_root.i, align 8
  %m_root.i24 = getelementptr inbounds i8, ptr %10, i64 64
  %12 = load ptr, ptr %m_root.i24, align 8
  %cmp.not = icmp eq ptr %11, %12
  br i1 %cmp.not, label %if.end20, label %if.then16

if.then16:                                        ; preds = %if.else13
  tail call void @_ZN3euf6plugin10push_mergeEPNS_5enodeES2_NS_13justificationE(ptr noundef nonnull align 8 dereferenceable(16) %this, ptr noundef nonnull %5, ptr noundef nonnull %10, ptr noundef nonnull byval(%"class.euf::justification") align 8 %dep)
  br label %if.end20

if.end20:                                         ; preds = %if.then16, %if.else13
  %13 = load ptr, ptr %xs, align 8
  %arrayidx.i25 = getelementptr inbounds i8, ptr %13, i64 -4
  %14 = load i32, ptr %arrayidx.i25, align 4
  %dec.i = add i32 %14, -1
  store i32 %dec.i, ptr %arrayidx.i25, align 4
  %15 = load ptr, ptr %ys, align 8
  %arrayidx.i26 = getelementptr inbounds i8, ptr %15, i64 -4
  %16 = load i32, ptr %arrayidx.i26, align 4
  %dec.i27 = add i32 %16, -1
  store i32 %dec.i27, ptr %arrayidx.i26, align 4
  br label %while.cond.backedge

while.cond.backedge:                              ; preds = %if.end20, %_ZN6vectorIPN3euf5enodeELb0EjE4backEv.exit23, %if.else, %if.else7, %if.else10
  %17 = load ptr, ptr %xs, align 8
  %cmp.i = icmp eq ptr %17, null
  br i1 %cmp.i, label %while.end, label %_ZNK6vectorIPN3euf5enodeELb0EjE5emptyEv.exit, !llvm.loop !29

while.end:                                        ; preds = %_ZNK6vectorIPN3euf5enodeELb0EjE5emptyEv.exit, %while.cond.backedge, %entry
  ret void
}